target datalayout = "e-m:e-p270:32:32-p271:32:32-p272:64:64-i64:64-i128:128-f80:128-n8:16:32:64-S128"
target triple = "x86_64-pc-linux-gnu"

%struct.H5S_t = type { %struct.H5S_extent_t, %struct.H5S_select_t }
%struct.H5S_extent_t = type { %struct.H5O_shared_t, i32, i32, i64, i32, ptr, ptr }
%struct.H5O_shared_t = type { i32, ptr, i32, %union.anon }
%union.anon = type { %struct.H5O_mesg_loc_t }
%struct.H5O_mesg_loc_t = type { i32, i64 }
%struct.H5S_select_t = type { ptr, i8, [32 x i64], i64, %union.anon.0 }
%union.anon.0 = type { ptr }

@H5S_init_g = global i8 0, align 1
@H5_libterm_g = external global i8, align 1
@.str.3 = private unnamed_addr constant [97 x i8] c"generated/home/dtcxzyw/WorkSpace/Projects/compilers/llvm-opt-benchmark/bench/hdf5/hdf5/src/H5S.c\00", align 1
@H5E_FUNC_g = external global i64, align 8
@H5E_CANTINIT_g = external global i64, align 8
@.str.4 = private unnamed_addr constant [32 x i8] c"interface initialization failed\00", align 1
@H5E_DATASPACE_g = external global i64, align 8
@__func__.H5S_get_npoints_max = private unnamed_addr constant [20 x i8] c"H5S_get_npoints_max\00", align 1
@H5E_UNSUPPORTED_g = external global i64, align 8
@.str.25 = private unnamed_addr constant [41 x i8] c"internal error (unknown dataspace class)\00", align 1

; Function Attrs: nounwind uwtable
define i64 @H5S_get_npoints_max(ptr noundef %0) #0 {
  %2 = alloca ptr, align 8
  %3 = alloca i32, align 4
  %4 = alloca i64, align 8
  %5 = alloca i8, align 1
  store ptr %0, ptr %2, align 8, !tbaa !13
  call void @llvm.lifetime.start.p0(i64 4, ptr %3) #7
  call void @llvm.lifetime.start.p0(i64 8, ptr %4) #7
  store i64 0, ptr %4, align 8, !tbaa !11
  call void @llvm.lifetime.start.p0(i64 1, ptr %5) #7
  store i8 0, ptr %5, align 1, !tbaa !7
  %6 = load i8, ptr @H5S_init_g, align 1, !tbaa !7, !range !9, !noundef !10
  %7 = trunc i8 %6 to i1
  br i1 %7, label %12, label %8

8:                                                ; preds = %1
  %9 = load i8, ptr @H5_libterm_g, align 1, !tbaa !7, !range !9, !noundef !10
  %10 = trunc i8 %9 to i1
  %11 = xor i1 %10, true
  br label %12

12:                                               ; preds = %8, %1
  %13 = phi i1 [ false, %1 ], [ %11, %8 ]
  %14 = xor i1 %13, true
  %15 = xor i1 %14, true
  %16 = zext i1 %15 to i32
  %17 = sext i32 %16 to i64
  %18 = call i64 @llvm.expect.i64(i64 %17, i64 0)
  %19 = icmp ne i64 %18, 0
  br i1 %19, label %20, label %43

20:                                               ; preds = %12
  store i8 1, ptr @H5S_init_g, align 1, !tbaa !7
  %21 = call i32 @H5S__init_package()
  %22 = icmp slt i32 %21, 0
  br i1 %22, label %23, label %42

23:                                               ; preds = %20
  store i8 0, ptr @H5S_init_g, align 1, !tbaa !7
  br label %24

24:                                               ; preds = %23
  br label %25

25:                                               ; preds = %24
  br label %26

26:                                               ; preds = %25
  %27 = load i64, ptr @H5E_FUNC_g, align 8, !tbaa !11
  %28 = load i64, ptr @H5E_CANTINIT_g, align 8, !tbaa !11
  %29 = call i32 (ptr, ptr, i32, i64, i64, ptr, ...) @H5E_printf_stack(ptr noundef @.str.3, ptr noundef @__func__.H5S_get_npoints_max, i32 noundef 793, i64 noundef %27, i64 noundef %28, ptr noundef @.str.4)
  br label %30

30:                                               ; preds = %26
  br label %31

31:                                               ; preds = %30
  store i8 1, ptr %5, align 1, !tbaa !7
  %32 = load i8, ptr %5, align 1, !tbaa !7, !range !9, !noundef !10
  %33 = trunc i8 %32 to i1
  %34 = zext i1 %33 to i8
  store i8 %34, ptr %5, align 1, !tbaa !7
  br label %35

35:                                               ; preds = %31
  br label %36

36:                                               ; preds = %35
  br label %37

37:                                               ; preds = %36
  store i64 0, ptr %4, align 8, !tbaa !11
  br label %151

38:                                               ; No predecessors!
  br label %39

39:                                               ; preds = %38
  br label %40

40:                                               ; preds = %39
  br label %41

41:                                               ; preds = %40
  br label %42

42:                                               ; preds = %41, %20
  br label %43

43:                                               ; preds = %42, %12
  %44 = load i8, ptr @H5S_init_g, align 1, !tbaa !7, !range !9, !noundef !10
  %45 = trunc i8 %44 to i1
  br i1 %45, label %50, label %46

46:                                               ; preds = %43
  %47 = load i8, ptr @H5_libterm_g, align 1, !tbaa !7, !range !9, !noundef !10
  %48 = trunc i8 %47 to i1
  %49 = xor i1 %48, true
  br label %50

50:                                               ; preds = %46, %43
  %51 = phi i1 [ true, %43 ], [ %49, %46 ]
  %52 = xor i1 %51, true
  %53 = xor i1 %52, true
  %54 = zext i1 %53 to i32
  %55 = sext i32 %54 to i64
  %56 = call i64 @llvm.expect.i64(i64 %55, i64 1)
  %57 = icmp ne i64 %56, 0
  br i1 %57, label %58, label %152

58:                                               ; preds = %50
  %59 = load ptr, ptr %2, align 8, !tbaa !13
  %60 = getelementptr inbounds nuw %struct.H5S_t, ptr %59, i32 0, i32 0
  %61 = getelementptr inbounds nuw %struct.H5S_extent_t, ptr %60, i32 0, i32 1
  %62 = load i32, ptr %61, align 8, !tbaa !16
  switch i32 %62, label %131 [
    i32 2, label %63
    i32 0, label %64
    i32 1, label %65
    i32 -1, label %130
  ]

63:                                               ; preds = %58
  store i64 0, ptr %4, align 8, !tbaa !11
  br label %150

64:                                               ; preds = %58
  store i64 1, ptr %4, align 8, !tbaa !11
  br label %150

65:                                               ; preds = %58
  %66 = load ptr, ptr %2, align 8, !tbaa !13
  %67 = getelementptr inbounds nuw %struct.H5S_t, ptr %66, i32 0, i32 0
  %68 = getelementptr inbounds nuw %struct.H5S_extent_t, ptr %67, i32 0, i32 6
  %69 = load ptr, ptr %68, align 8, !tbaa !25
  %70 = icmp ne ptr %69, null
  br i1 %70, label %71, label %106

71:                                               ; preds = %65
  store i64 1, ptr %4, align 8, !tbaa !11
  store i32 0, ptr %3, align 4, !tbaa !3
  br label %72

72:                                               ; preds = %102, %71
  %73 = load i32, ptr %3, align 4, !tbaa !3
  %74 = load ptr, ptr %2, align 8, !tbaa !13
  %75 = getelementptr inbounds nuw %struct.H5S_t, ptr %74, i32 0, i32 0
  %76 = getelementptr inbounds nuw %struct.H5S_extent_t, ptr %75, i32 0, i32 4
  %77 = load i32, ptr %76, align 8, !tbaa !24
  %78 = icmp ult i32 %73, %77
  br i1 %78, label %79, label %105

79:                                               ; preds = %72
  %80 = load ptr, ptr %2, align 8, !tbaa !13
  %81 = getelementptr inbounds nuw %struct.H5S_t, ptr %80, i32 0, i32 0
  %82 = getelementptr inbounds nuw %struct.H5S_extent_t, ptr %81, i32 0, i32 6
  %83 = load ptr, ptr %82, align 8, !tbaa !25
  %84 = load i32, ptr %3, align 4, !tbaa !3
  %85 = zext i32 %84 to i64
  %86 = getelementptr inbounds nuw i64, ptr %83, i64 %85
  %87 = load i64, ptr %86, align 8, !tbaa !11
  %88 = icmp eq i64 -1, %87
  br i1 %88, label %89, label %90

89:                                               ; preds = %79
  store i64 -1, ptr %4, align 8, !tbaa !11
  br label %105

90:                                               ; preds = %79
  %91 = load ptr, ptr %2, align 8, !tbaa !13
  %92 = getelementptr inbounds nuw %struct.H5S_t, ptr %91, i32 0, i32 0
  %93 = getelementptr inbounds nuw %struct.H5S_extent_t, ptr %92, i32 0, i32 6
  %94 = load ptr, ptr %93, align 8, !tbaa !25
  %95 = load i32, ptr %3, align 4, !tbaa !3
  %96 = zext i32 %95 to i64
  %97 = getelementptr inbounds nuw i64, ptr %94, i64 %96
  %98 = load i64, ptr %97, align 8, !tbaa !11
  %99 = load i64, ptr %4, align 8, !tbaa !11
  %100 = mul i64 %99, %98
  store i64 %100, ptr %4, align 8, !tbaa !11
  br label %101

101:                                              ; preds = %90
  br label %102

102:                                              ; preds = %101
  %103 = load i32, ptr %3, align 4, !tbaa !3
  %104 = add i32 %103, 1
  store i32 %104, ptr %3, align 4, !tbaa !3
  br label %72, !llvm.loop !43

105:                                              ; preds = %89, %72
  br label %129

106:                                              ; preds = %65
  store i64 1, ptr %4, align 8, !tbaa !11
  store i32 0, ptr %3, align 4, !tbaa !3
  br label %107

107:                                              ; preds = %125, %106
  %108 = load i32, ptr %3, align 4, !tbaa !3
  %109 = load ptr, ptr %2, align 8, !tbaa !13
  %110 = getelementptr inbounds nuw %struct.H5S_t, ptr %109, i32 0, i32 0
  %111 = getelementptr inbounds nuw %struct.H5S_extent_t, ptr %110, i32 0, i32 4
  %112 = load i32, ptr %111, align 8, !tbaa !24
  %113 = icmp ult i32 %108, %112
  br i1 %113, label %114, label %128

114:                                              ; preds = %107
  %115 = load ptr, ptr %2, align 8, !tbaa !13
  %116 = getelementptr inbounds nuw %struct.H5S_t, ptr %115, i32 0, i32 0
  %117 = getelementptr inbounds nuw %struct.H5S_extent_t, ptr %116, i32 0, i32 5
  %118 = load ptr, ptr %117, align 8, !tbaa !26
  %119 = load i32, ptr %3, align 4, !tbaa !3
  %120 = zext i32 %119 to i64
  %121 = getelementptr inbounds nuw i64, ptr %118, i64 %120
  %122 = load i64, ptr %121, align 8, !tbaa !11
  %123 = load i64, ptr %4, align 8, !tbaa !11
  %124 = mul i64 %123, %122
  store i64 %124, ptr %4, align 8, !tbaa !11
  br label %125

125:                                              ; preds = %114
  %126 = load i32, ptr %3, align 4, !tbaa !3
  %127 = add i32 %126, 1
  store i32 %127, ptr %3, align 4, !tbaa !3
  br label %107, !llvm.loop !44

128:                                              ; preds = %107
  br label %129

129:                                              ; preds = %128, %105
  br label %150

130:                                              ; preds = %58
  br label %131

131:                                              ; preds = %58, %130
  br label %132

132:                                              ; preds = %131
  br label %133

133:                                              ; preds = %132
  br label %134

134:                                              ; preds = %133
  %135 = load i64, ptr @H5E_DATASPACE_g, align 8, !tbaa !11
  %136 = load i64, ptr @H5E_UNSUPPORTED_g, align 8, !tbaa !11
  %137 = call i32 (ptr, ptr, i32, i64, i64, ptr, ...) @H5E_printf_stack(ptr noundef @.str.3, ptr noundef @__func__.H5S_get_npoints_max, i32 noundef 826, i64 noundef %135, i64 noundef %136, ptr noundef @.str.25)
  br label %138

138:                                              ; preds = %134
  br label %139

139:                                              ; preds = %138
  store i8 1, ptr %5, align 1, !tbaa !7
  %140 = load i8, ptr %5, align 1, !tbaa !7, !range !9, !noundef !10
  %141 = trunc i8 %140 to i1
  %142 = zext i1 %141 to i8
  store i8 %142, ptr %5, align 1, !tbaa !7
  br label %143

143:                                              ; preds = %139
  br label %144

144:                                              ; preds = %143
  br label %145

145:                                              ; preds = %144
  store i64 0, ptr %4, align 8, !tbaa !11
  br label %151

146:                                              ; No predecessors!
  br label %147

147:                                              ; preds = %146
  br label %148

148:                                              ; preds = %147
  br label %149

149:                                              ; preds = %148
  br label %150

150:                                              ; preds = %149, %129, %64, %63
  br label %151

151:                                              ; preds = %150, %145, %37
  br label %152

152:                                              ; preds = %151, %50
  %153 = load i64, ptr %4, align 8, !tbaa !11
  call void @llvm.lifetime.end.p0(i64 1, ptr %5) #7
  call void @llvm.lifetime.end.p0(i64 8, ptr %4) #7
  call void @llvm.lifetime.end.p0(i64 4, ptr %3) #7
  ret i64 %153
}