; Function Attrs: nounwind uwtable
define i64 @H5S_get_npoints_max(ptr noundef readonly captures(none) %0) local_unnamed_addr #0 {
  %2 = load i8, ptr @H5S_init_g, align 1, !tbaa !3, !range !7, !noundef !8
  %3 = trunc nuw i8 %2 to i1
  %4 = load i8, ptr @H5_libterm_g, align 1, !range !7
  %5 = trunc nuw i8 %4 to i1
  %6 = select i1 %3, i1 true, i1 %5
  br i1 %6, label %14, label %7, !prof !9

7:                                                ; preds = %1
  store i8 1, ptr @H5S_init_g, align 1, !tbaa !3
  %8 = tail call i32 @H5S__init_package()
  %9 = icmp slt i32 %8, 0
  br i1 %9, label %10, label %._crit_edge

._crit_edge:                                      ; preds = %7
  %.pre = load i8, ptr @H5S_init_g, align 1, !tbaa !3, !range !7
  %.pre40 = load i8, ptr @H5_libterm_g, align 1, !range !7
  %.pre41 = trunc nuw i8 %.pre to i1
  %.pre42 = trunc nuw i8 %.pre40 to i1
  br label %14

10:                                               ; preds = %7
  store i8 0, ptr @H5S_init_g, align 1, !tbaa !3
  %11 = load i64, ptr @H5E_FUNC_g, align 8, !tbaa !10
  %12 = load i64, ptr @H5E_CANTINIT_g, align 8, !tbaa !10
  %13 = tail call i32 (ptr, ptr, i32, i64, i64, ptr, ...) @H5E_printf_stack(ptr noundef nonnull @.str.3, ptr noundef nonnull @__func__.H5S_get_npoints_max, i32 noundef 793, i64 noundef %11, i64 noundef %12, ptr noundef nonnull @.str.4) #10
  br label %.loopexit

14:                                               ; preds = %._crit_edge, %1
  %.pre-phi43 = phi i1 [ %.pre42, %._crit_edge ], [ %5, %1 ]
  %.pre-phi = phi i1 [ %.pre41, %._crit_edge ], [ %3, %1 ]
  %15 = xor i1 %.pre-phi43, true
  %16 = select i1 %.pre-phi, i1 true, i1 %15
  br i1 %16, label %17, label %.loopexit, !prof !9

17:                                               ; preds = %14
  %18 = getelementptr inbounds nuw i8, ptr %0, i64 40
  %19 = load i32, ptr %18, align 8, !tbaa !13
  switch i32 %19, label %37 [
    i32 2, label %.loopexit
    i32 0, label %20
    i32 1, label %21
  ]

20:                                               ; preds = %17
  br label %.loopexit

21:                                               ; preds = %17
  %22 = getelementptr inbounds nuw i8, ptr %0, i64 72
  %23 = load ptr, ptr %22, align 8, !tbaa !42
  %.not = icmp eq ptr %23, null
  %24 = getelementptr inbounds nuw i8, ptr %0, i64 56
  %25 = load i32, ptr %24, align 8, !tbaa !23
  %.not32 = icmp eq i32 %25, 0
  br i1 %.not, label %.preheader, label %.preheader21

.preheader21:                                     ; preds = %21
  br i1 %.not32, label %.loopexit, label %.lr.ph.preheader

.lr.ph.preheader:                                 ; preds = %.preheader21
  %wide.trip.count = zext i32 %25 to i64
  br label %.lr.ph

.preheader:                                       ; preds = %21
  br i1 %.not32, label %.loopexit, label %.lr.ph29

.lr.ph29:                                         ; preds = %.preheader
  %26 = getelementptr inbounds nuw i8, ptr %0, i64 64
  %27 = load ptr, ptr %26, align 8, !tbaa !43
  %wide.trip.count38 = zext i32 %25 to i64
  br label %33

.lr.ph:                                           ; preds = %.lr.ph.preheader, %31
  %indvars.iv = phi i64 [ 0, %.lr.ph.preheader ], [ %indvars.iv.next, %31 ]
  %.124 = phi i64 [ 1, %.lr.ph.preheader ], [ %32, %31 ]
  %28 = getelementptr inbounds nuw i64, ptr %23, i64 %indvars.iv
  %29 = load i64, ptr %28, align 8, !tbaa !10
  %30 = icmp eq i64 %29, -1
  br i1 %30, label %.loopexit, label %31

31:                                               ; preds = %.lr.ph
  %32 = mul i64 %29, %.124
  %indvars.iv.next = add nuw nsw i64 %indvars.iv, 1
  %exitcond.not = icmp eq i64 %indvars.iv.next, %wide.trip.count
  br i1 %exitcond.not, label %.loopexit, label %.lr.ph, !llvm.loop !44

33:                                               ; preds = %.lr.ph29, %33
  %indvars.iv35 = phi i64 [ 0, %.lr.ph29 ], [ %indvars.iv.next36, %33 ]
  %.228 = phi i64 [ 1, %.lr.ph29 ], [ %36, %33 ]
  %34 = getelementptr inbounds nuw i64, ptr %27, i64 %indvars.iv35
  %35 = load i64, ptr %34, align 8, !tbaa !10
  %36 = mul i64 %35, %.228
  %indvars.iv.next36 = add nuw nsw i64 %indvars.iv35, 1
  %exitcond39.not = icmp eq i64 %indvars.iv.next36, %wide.trip.count38
  br i1 %exitcond39.not, label %.loopexit, label %33, !llvm.loop !45

37:                                               ; preds = %17
  %38 = load i64, ptr @H5E_DATASPACE_g, align 8, !tbaa !10
  %39 = load i64, ptr @H5E_UNSUPPORTED_g, align 8, !tbaa !10
  %40 = tail call i32 (ptr, ptr, i32, i64, i64, ptr, ...) @H5E_printf_stack(ptr noundef nonnull @.str.3, ptr noundef nonnull @__func__.H5S_get_npoints_max, i32 noundef 826, i64 noundef %38, i64 noundef %39, ptr noundef nonnull @.str.25) #10
  br label %.loopexit

.loopexit:                                        ; preds = %31, %.lr.ph, %33, %.preheader21, %.preheader, %17, %10, %37, %20, %14
  %.0 = phi i64 [ 0, %10 ], [ 0, %37 ], [ 1, %20 ], [ 0, %14 ], [ 0, %17 ], [ 1, %.preheader ], [ 1, %.preheader21 ], [ %36, %33 ], [ %32, %31 ], [ -1, %.lr.ph ]
  ret i64 %.0
}